target datalayout = "e-m:e-p270:32:32-p271:32:32-p272:64:64-i64:64-i128:128-f80:128-n8:16:32:64-S128"
target triple = "x86_64-pc-linux-gnu"

%struct.AllocSetContext = type { %struct.MemoryContextData, ptr, [11 x ptr], i32, i32, i32, i32, i32 }
%struct.MemoryContextData = type { i32, i8, i8, i64, ptr, ptr, ptr, ptr, ptr, ptr, ptr, ptr }
%struct.AllocBlockData = type { ptr, ptr, ptr, ptr, ptr }

; Function Attrs: nounwind uwtable
define dso_local void @AllocSetReset(ptr noundef %0) #0 {
  %2 = alloca ptr, align 8
  %3 = alloca ptr, align 8
  %4 = alloca ptr, align 8
  %5 = alloca i64, align 8
  %6 = alloca ptr, align 8
  %7 = alloca i32, align 4
  %8 = alloca i64, align 8
  %9 = alloca ptr, align 8
  %10 = alloca ptr, align 8
  %11 = alloca ptr, align 8
  store ptr %0, ptr %2, align 8
  call void @llvm.lifetime.start.p0(i64 8, ptr %3) #14
  %12 = load ptr, ptr %2, align 8
  store ptr %12, ptr %3, align 8
  call void @llvm.lifetime.start.p0(i64 8, ptr %4) #14
  call void @llvm.lifetime.start.p0(i64 8, ptr %5) #14
  %13 = load ptr, ptr %3, align 8
  %14 = getelementptr inbounds nuw i8, ptr %13, i64 200
  %15 = getelementptr inbounds nuw %struct.AllocBlockData, ptr %14, i32 0, i32 4
  %16 = load ptr, ptr %15, align 8
  %17 = load ptr, ptr %3, align 8
  %18 = ptrtoint ptr %16 to i64
  %19 = ptrtoint ptr %17 to i64
  %20 = sub i64 %18, %19
  store i64 %20, ptr %5, align 8
  br label %21

21:                                               ; preds = %1
  call void @llvm.lifetime.start.p0(i64 8, ptr %6) #14
  %22 = load ptr, ptr %3, align 8
  %23 = getelementptr inbounds nuw %struct.AllocSetContext, ptr %22, i32 0, i32 2
  %24 = getelementptr inbounds [11 x ptr], ptr %23, i64 0, i64 0
  store ptr %24, ptr %6, align 8
  call void @llvm.lifetime.start.p0(i64 4, ptr %7) #14
  store i32 0, ptr %7, align 4
  call void @llvm.lifetime.start.p0(i64 8, ptr %8) #14
  store i64 88, ptr %8, align 8
  %25 = load i64, ptr %8, align 8
  %26 = and i64 %25, 7
  %27 = icmp eq i64 %26, 0
  br i1 %27, label %28, label %46

28:                                               ; preds = %21
  %29 = load i32, ptr %7, align 4
  %30 = icmp eq i32 %29, 0
  br i1 %30, label %31, label %46

31:                                               ; preds = %28
  %32 = load i64, ptr %8, align 8
  %33 = icmp ule i64 %32, 1024
  br i1 %33, label %34, label %46

34:                                               ; preds = %31
  call void @llvm.lifetime.start.p0(i64 8, ptr %9) #14
  %35 = load ptr, ptr %6, align 8
  %36 = load i64, ptr %8, align 8
  %37 = getelementptr inbounds nuw i8, ptr %35, i64 %36
  store ptr %37, ptr %9, align 8
  br label %38

38:                                               ; preds = %42, %34
  %39 = load ptr, ptr %6, align 8
  %40 = load ptr, ptr %9, align 8
  %41 = icmp ult ptr %39, %40
  br i1 %41, label %42, label %45

42:                                               ; preds = %38
  %43 = load ptr, ptr %6, align 8
  %44 = getelementptr inbounds nuw i64, ptr %43, i32 1
  store ptr %44, ptr %6, align 8
  store i64 0, ptr %43, align 8
  br label %38, !llvm.loop !7

45:                                               ; preds = %38
  call void @llvm.lifetime.end.p0(i64 8, ptr %9) #14
  br label %51

46:                                               ; preds = %31, %28, %21
  %47 = load ptr, ptr %6, align 8
  %48 = load i32, ptr %7, align 4
  %49 = trunc i32 %48 to i8
  %50 = load i64, ptr %8, align 8
  call void @llvm.memset.p0.i64(ptr align 8 %47, i8 %49, i64 %50, i1 false)
  br label %51

51:                                               ; preds = %46, %45
  call void @llvm.lifetime.end.p0(i64 8, ptr %8) #14
  call void @llvm.lifetime.end.p0(i64 4, ptr %7) #14
  call void @llvm.lifetime.end.p0(i64 8, ptr %6) #14
  br label %52

52:                                               ; preds = %51
  br label %53

53:                                               ; preds = %52
  %54 = load ptr, ptr %3, align 8
  %55 = getelementptr inbounds nuw %struct.AllocSetContext, ptr %54, i32 0, i32 1
  %56 = load ptr, ptr %55, align 8
  store ptr %56, ptr %4, align 8
  %57 = load ptr, ptr %3, align 8
  %58 = getelementptr inbounds nuw i8, ptr %57, i64 200
  %59 = load ptr, ptr %3, align 8
  %60 = getelementptr inbounds nuw %struct.AllocSetContext, ptr %59, i32 0, i32 1
  store ptr %58, ptr %60, align 8
  br label %61

61:                                               ; preds = %98, %53
  %62 = load ptr, ptr %4, align 8
  %63 = icmp ne ptr %62, null
  br i1 %63, label %64, label %100

64:                                               ; preds = %61
  call void @llvm.lifetime.start.p0(i64 8, ptr %10) #14
  %65 = load ptr, ptr %4, align 8
  %66 = getelementptr inbounds nuw %struct.AllocBlockData, ptr %65, i32 0, i32 2
  %67 = load ptr, ptr %66, align 8
  store ptr %67, ptr %10, align 8
  %68 = load ptr, ptr %4, align 8
  %69 = load ptr, ptr %3, align 8
  %70 = getelementptr inbounds nuw i8, ptr %69, i64 200
  %71 = icmp eq ptr %68, %70
  br i1 %71, label %72, label %85

72:                                               ; preds = %64
  call void @llvm.lifetime.start.p0(i64 8, ptr %11) #14
  %73 = load ptr, ptr %4, align 8
  %74 = getelementptr inbounds nuw i8, ptr %73, i64 40
  store ptr %74, ptr %11, align 8
  br label %75

75:                                               ; preds = %72
  br label %76

76:                                               ; preds = %75
  br label %77

77:                                               ; preds = %76
  %78 = load ptr, ptr %11, align 8
  %79 = load ptr, ptr %4, align 8
  %80 = getelementptr inbounds nuw %struct.AllocBlockData, ptr %79, i32 0, i32 3
  store ptr %78, ptr %80, align 8
  %81 = load ptr, ptr %4, align 8
  %82 = getelementptr inbounds nuw %struct.AllocBlockData, ptr %81, i32 0, i32 1
  store ptr null, ptr %82, align 8
  %83 = load ptr, ptr %4, align 8
  %84 = getelementptr inbounds nuw %struct.AllocBlockData, ptr %83, i32 0, i32 2
  store ptr null, ptr %84, align 8
  call void @llvm.lifetime.end.p0(i64 8, ptr %11) #14
  br label %98

85:                                               ; preds = %64
  %86 = load ptr, ptr %4, align 8
  %87 = getelementptr inbounds nuw %struct.AllocBlockData, ptr %86, i32 0, i32 4
  %88 = load ptr, ptr %87, align 8
  %89 = load ptr, ptr %4, align 8
  %90 = ptrtoint ptr %88 to i64
  %91 = ptrtoint ptr %89 to i64
  %92 = sub i64 %90, %91
  %93 = load ptr, ptr %2, align 8
  %94 = getelementptr inbounds nuw %struct.MemoryContextData, ptr %93, i32 0, i32 3
  %95 = load i64, ptr %94, align 8
  %96 = sub i64 %95, %92
  store i64 %96, ptr %94, align 8
  %97 = load ptr, ptr %4, align 8
  call void @free(ptr noundef %97) #14
  br label %98

98:                                               ; preds = %85, %77
  %99 = load ptr, ptr %10, align 8
  store ptr %99, ptr %4, align 8
  call void @llvm.lifetime.end.p0(i64 8, ptr %10) #14
  br label %61, !llvm.loop !8

100:                                              ; preds = %61
  %101 = load ptr, ptr %3, align 8
  %102 = getelementptr inbounds nuw %struct.AllocSetContext, ptr %101, i32 0, i32 3
  %103 = load i32, ptr %102, align 8
  %104 = load ptr, ptr %3, align 8
  %105 = getelementptr inbounds nuw %struct.AllocSetContext, ptr %104, i32 0, i32 5
  store i32 %103, ptr %105, align 8
  call void @llvm.lifetime.end.p0(i64 8, ptr %5) #14
  call void @llvm.lifetime.end.p0(i64 8, ptr %4) #14
  call void @llvm.lifetime.end.p0(i64 8, ptr %3) #14
  ret void
}