; Function Attrs: nounwind uwtable
define dso_local void @AllocSetReset(ptr noundef initializes((88, 176)) %0) local_unnamed_addr #0 {
  %scevgep = getelementptr nuw i8, ptr %0, i64 88
  tail call void @llvm.memset.p0.i64(ptr noundef nonnull align 8 dereferenceable(88) %scevgep, i8 0, i64 88, i1 false)
  %2 = getelementptr inbounds nuw i8, ptr %0, i64 200
  %3 = getelementptr inbounds nuw i8, ptr %0, i64 80
  %4 = load ptr, ptr %3, align 8
  store ptr %2, ptr %3, align 8
  %.not40 = icmp eq ptr %4, null
  br i1 %.not40, label %._crit_edge, label %.lr.ph

.lr.ph:                                           ; preds = %1
  %5 = getelementptr inbounds nuw i8, ptr %0, i64 8
  br label %6

6:                                                ; preds = %.lr.ph, %21
  %.041 = phi ptr [ %4, %.lr.ph ], [ %8, %21 ]
  %7 = getelementptr inbounds nuw i8, ptr %.041, i64 16
  %8 = load ptr, ptr %7, align 8
  %9 = icmp eq ptr %.041, %2
  br i1 %9, label %10, label %14

10:                                               ; preds = %6
  %11 = getelementptr inbounds nuw i8, ptr %.041, i64 40
  %12 = getelementptr inbounds nuw i8, ptr %.041, i64 24
  store ptr %11, ptr %12, align 8
  %13 = getelementptr inbounds nuw i8, ptr %.041, i64 8
  tail call void @llvm.memset.p0.i64(ptr noundef nonnull align 8 dereferenceable(16) %13, i8 0, i64 16, i1 false)
  br label %21

14:                                               ; preds = %6
  %15 = getelementptr inbounds nuw i8, ptr %.041, i64 32
  %16 = load ptr, ptr %15, align 8
  %17 = ptrtoint ptr %16 to i64
  %18 = ptrtoint ptr %.041 to i64
  %.neg = sub i64 %18, %17
  %19 = load i64, ptr %5, align 8
  %20 = add i64 %.neg, %19
  store i64 %20, ptr %5, align 8
  tail call void @free(ptr noundef nonnull %.041) #15
  br label %21

21:                                               ; preds = %14, %10
  %.not = icmp eq ptr %8, null
  br i1 %.not, label %._crit_edge, label %6, !llvm.loop !6

._crit_edge:                                      ; preds = %21, %1
  %22 = getelementptr inbounds nuw i8, ptr %0, i64 176
  %23 = load i32, ptr %22, align 8
  %24 = getelementptr inbounds nuw i8, ptr %0, i64 184
  store i32 %23, ptr %24, align 8
  ret void
}